(dp1
S'11'
p2
ccopy_reg
_reconstructor
p3
(cgeometry_msgs.msg._Pose
Pose
p4
c__builtin__
object
p5
NtRp6
(lp7
g3
(cgeometry_msgs.msg._Point
Point
p8
g5
NtRp9
(lp10
F-18.821025848388672
aF-2.7070097923278809
aF0
abag3
(cgeometry_msgs.msg._Quaternion
Quaternion
p11
g5
NtRp12
(lp13
F0
aF0
aF0.56916144955052772
aF0.82222578671891711
ababsS'10'
p14
g3
(g4
g5
NtRp15
(lp16
g3
(g8
g5
NtRp17
(lp18
F-18.234382629394531
aF-7.3042459487915039
aF0
abag3
(g11
g5
NtRp19
(lp20
F0
aF0
aF0.57076518553810318
aF0.82111333138468445
ababsS'1'
g3
(g4
g5
NtRp21
(lp22
g3
(g8
g5
NtRp23
(lp24
F-17.666908264160156
aF-3.464547872543335
aF0
abag3
(g11
g5
NtRp25
(lp26
F0
aF0
aF0.55528993783269776
aF0.83165683123615275
ababsS'3'
g3
(g4
g5
NtRp27
(lp28
g3
(g8
g5
NtRp29
(lp30
F-20.39991569519043
aF-4.060391902923584
aF0
abag3
(g11
g5
NtRp31
(lp32
F0
aF0
aF0.56475972264020935
aF0.82525538815772281
ababsS'2'
g3
(g4
g5
NtRp33
(lp34
g3
(g8
g5
NtRp35
(lp36
F-16.955375671386719
aF-3.755932092666626
aF0
abag3
(g11
g5
NtRp37
(lp38
F0
aF0
aF0.55685953355263462
aF0.83060668182452169
ababsS'5'
g3
(g4
g5
NtRp39
(lp40
g3
(g8
g5
NtRp41
(lp42
F-19.464014053344727
aF-4.9499683380126953
aF0
abag3
(g11
g5
NtRp43
(lp44
F0
aF0
aF0.56402291665662374
aF0.82575913527260192
ababsS'4'
g3
(g4
g5
NtRp45
(lp46
g3
(g8
g5
NtRp47
(lp48
F-20.745121002197266
aF-4.8514623641967773
aF0
abag3
(g11
g5
NtRp49
(lp50
F0
aF0
aF0.55746042780959448
aF0.83020351205372767
ababsS'7'
g3
(g4
g5
NtRp51
(lp52
g3
(g8
g5
NtRp53
(lp54
F-17.83416748046875
aF-6.720405101776123
aF0
abag3
(g11
g5
NtRp55
(lp56
F0
aF0
aF0.56231739473963682
aF0.82692148815545208
ababsS'6'
g3
(g4
g5
NtRp57
(lp58
g3
(g8
g5
NtRp59
(lp60
F-17.576688766479492
aF-6.1370429992675781
aF0
abag3
(g11
g5
NtRp61
(lp62
F0
aF0
aF0.56629921296579411
aF0.82419973392031753
ababsS'9'
g3
(g4
g5
NtRp63
(lp64
g3
(g8
g5
NtRp65
(lp66
F-20.029987335205078
aF-6.6323103904724121
aF0
abag3
(g11
g5
NtRp67
(lp68
F0
aF0
aF0.56556513708886169
aF0.82470362901448246
ababsS'8'
g3
(g4
g5
NtRp69
(lp70
g3
(g8
g5
NtRp71
(lp72
F-21.30372428894043
aF-6.0711956024169922
aF0
abag3
(g11
g5
NtRp73
(lp74
F0
aF0
aF0.55115274856133523
aF0.83440436705070387
ababs.