(dp1
S'1'
ccopy_reg
_reconstructor
p2
(cgeometry_msgs.msg._Pose
Pose
p3
c__builtin__
object
p4
NtRp5
(lp6
g2
(cgeometry_msgs.msg._Point
Point
p7
g4
NtRp8
(lp9
F-13.372666358947754
aF-3.5719935894012451
aF0
abag2
(cgeometry_msgs.msg._Quaternion
Quaternion
p10
g4
NtRp11
(lp12
F0
aF0
aF-0.80930552835555736
aF0.58738791422120051
ababsS'3'
g2
(g3
g4
NtRp13
(lp14
g2
(g7
g4
NtRp15
(lp16
F-13.313597679138184
aF-2.8311326503753662
aF0
abag2
(g10
g4
NtRp17
(lp18
F0
aF0
aF-0.81996426830665703
aF0.57241470866874922
ababsS'2'
g2
(g3
g4
NtRp19
(lp20
g2
(g7
g4
NtRp21
(lp22
F-14.50200366973877
aF-3.1422827243804932
aF0
abag2
(g10
g4
NtRp23
(lp24
F0
aF0
aF-0.82898681089571613
aF0.55926815335843194
ababsS'5'
g2
(g3
g4
NtRp25
(lp26
g2
(g7
g4
NtRp27
(lp28
F-16.229057312011719
aF-7.9701676368713379
aF0
abag2
(g10
g4
NtRp29
(lp30
F0
aF0
aF-0.21562075160027355
aF0.97647718431068997
ababsS'7'
g2
(g3
g4
NtRp31
(lp32
g2
(g7
g4
NtRp33
(lp34
F-16.631734848022461
aF-7.8205389976501465
aF0
abag2
(g10
g4
NtRp35
(lp36
F0
aF0
aF-0.18148874254734507
aF0.98339302231029857
ababsS'6'
g2
(g3
g4
NtRp37
(lp38
g2
(g7
g4
NtRp39
(lp40
F-16.365497589111328
aF-7.5905909538269043
aF0
abag2
(g10
g4
NtRp41
(lp42
F0
aF0
aF0.52768078969500187
aF0.84944274921083363
ababs.