(dp1
S'42'
p2
ccopy_reg
_reconstructor
p3
(cgeometry_msgs.msg._Pose
Pose
p4
c__builtin__
object
p5
NtRp6
(lp7
g3
(cgeometry_msgs.msg._Point
Point
p8
g5
NtRp9
(lp10
F-18.491851806640625
aF-1.7080502510070801
aF0
abag3
(cgeometry_msgs.msg._Quaternion
Quaternion
p11
g5
NtRp12
(lp13
F0
aF0
aF0.97957835494936096
aF0.20106279246718911
ababsS'24'
p14
g3
(g4
g5
NtRp15
(lp16
g3
(g8
g5
NtRp17
(lp18
F-17.529497146606445
aF-4.5274643898010254
aF0
abag3
(g11
g5
NtRp19
(lp20
F0
aF0
aF0.9770809824823713
aF-0.21286792541687455
ababsS'25'
p21
g3
(g4
g5
NtRp22
(lp23
g3
(g8
g5
NtRp24
(lp25
F-16.185916900634766
aF-2.3748114109039307
aF0
abag3
(g11
g5
NtRp26
(lp27
F0
aF0
aF0.89444322427481582
aF-0.44718152751301282
ababsS'26'
p28
g3
(g4
g5
NtRp29
(lp30
g3
(g8
g5
NtRp31
(lp32
F-17.199216842651367
aF-1.0099292993545532
aF0
abag3
(g11
g5
NtRp33
(lp34
F0
aF0
aF0.93963979267547626
aF-0.3421652525035061
ababsS'27'
p35
g3
(g4
g5
NtRp36
(lp37
g3
(g8
g5
NtRp38
(lp39
F-14.630440711975098
aF-3.0990886688232422
aF0
abag3
(g11
g5
NtRp40
(lp41
F0
aF0
aF0.66064348976814968
aF0.75069979314434387
ababsS'20'
p42
g3
(g4
g5
NtRp43
(lp44
g3
(g8
g5
NtRp45
(lp46
F-18.932209014892578
aF-6.5635561943054199
aF0
abag3
(g11
g5
NtRp47
(lp48
F0
aF0
aF0.58305441802352109
aF0.81243310224488829
ababsS'21'
p49
g3
(g4
g5
NtRp50
(lp51
g3
(g8
g5
NtRp52
(lp53
F-18.525402069091797
aF-5.6443758010864258
aF0
abag3
(g11
g5
NtRp54
(lp55
F0
aF0
aF0.65761827393518291
aF0.75335131631033259
ababsS'22'
p56
g3
(g4
g5
NtRp57
(lp58
g3
(g8
g5
NtRp59
(lp60
F-19.215309143066406
aF-4.151944637298584
aF0
abag3
(g11
g5
NtRp61
(lp62
F0
aF0
aF0.088432646533685197
aF0.99608215877358641
ababsS'23'
p63
g3
(g4
g5
NtRp64
(lp65
g3
(g8
g5
NtRp66
(lp67
F-18.503049850463867
aF-3.680448055267334
aF0
abag3
(g11
g5
NtRp68
(lp69
F0
aF0
aF-0.78263697935943544
aF0.62247840005829835
ababsS'28'
p70
g3
(g4
g5
NtRp71
(lp72
g3
(g8
g5
NtRp73
(lp74
F-13.508633613586426
aF-3.6047930717468262
aF0
abag3
(g11
g5
NtRp75
(lp76
F0
aF0
aF0.92008793926092558
aF0.39171186352545334
ababsS'29'
p77
g3
(g4
g5
NtRp78
(lp79
g3
(g8
g5
NtRp80
(lp81
F-13.416964530944824
aF-2.8085029125213623
aF0
abag3
(g11
g5
NtRp82
(lp83
F0
aF0
aF0.99663267875140082
aF0.081995753821811873
ababsS'40'
p84
g3
(g4
g5
NtRp85
(lp86
g3
(g8
g5
NtRp87
(lp88
F-19.388442993164062
aF-4.0854816436767578
aF0
abag3
(g11
g5
NtRp89
(lp90
F0
aF0
aF-0.20142454033801205
aF0.97950403498383842
ababsS'41'
p91
g3
(g4
g5
NtRp92
(lp93
g3
(g8
g5
NtRp94
(lp95
F-18.10377311706543
aF-0.92609524726867676
aF0
abag3
(g11
g5
NtRp96
(lp97
F0
aF0
aF0.7989167005307336
aF0.60144168928757014
ababsS'1'
g3
(g4
g5
NtRp98
(lp99
g3
(g8
g5
NtRp100
(lp101
F-15.255529403686523
aF-2.4747698307037354
aF0
abag3
(g11
g5
NtRp102
(lp103
F0
aF0
aF0.98732073554273314
aF0.15873803944661921
ababsS'3'
g3
(g4
g5
NtRp104
(lp105
g3
(g8
g5
NtRp106
(lp107
F-16.838710784912109
aF-2.3739490509033203
aF0
abag3
(g11
g5
NtRp108
(lp109
F0
aF0
aF0.98659090091995738
aF0.16321272689942659
ababsS'2'
g3
(g4
g5
NtRp110
(lp111
g3
(g8
g5
NtRp112
(lp113
F-15.978113174438477
aF-2.4614458084106445
aF0
abag3
(g11
g5
NtRp114
(lp115
F0
aF0
aF0.98620387698791456
aF0.16553523194174241
ababsS'5'
g3
(g4
g5
NtRp116
(lp117
g3
(g8
g5
NtRp118
(lp119
F-17.944368362426758
aF-0.74013328552246094
aF0
abag3
(g11
g5
NtRp120
(lp121
F0
aF0
aF-0.8163334489398103
aF0.5775809035468833
ababsS'4'
g3
(g4
g5
NtRp122
(lp123
g3
(g8
g5
NtRp124
(lp125
F-17.811502456665039
aF-1.7663997411727905
aF0
abag3
(g11
g5
NtRp126
(lp127
F0
aF0
aF0.99114934309498837
aF0.13275157129907392
ababsS'7'
g3
(g4
g5
NtRp128
(lp129
g3
(g8
g5
NtRp130
(lp131
F-18.529226303100586
aF-3.5827939510345459
aF0
abag3
(g11
g5
NtRp132
(lp133
F0
aF0
aF-0.82665214992759495
aF0.56271326892129092
ababsS'6'
g3
(g4
g5
NtRp134
(lp135
g3
(g8
g5
NtRp136
(lp137
F-18.580417633056641
aF-2.6589462757110596
aF0
abag3
(g11
g5
NtRp138
(lp139
F0
aF0
aF-0.82163281038884894
aF0.57001712684139716
ababsS'9'
g3
(g4
g5
NtRp140
(lp141
g3
(g8
g5
NtRp142
(lp143
F-17.518795013427734
aF-4.8400492668151855
aF0
abag3
(g11
g5
NtRp144
(lp145
F0
aF0
aF-0.1869753532572225
aF0.98236460505982037
ababsS'8'
g3
(g4
g5
NtRp146
(lp147
g3
(g8
g5
NtRp148
(lp149
F-18.189050674438477
aF-4.6992988586425781
aF0
abag3
(g11
g5
NtRp150
(lp151
F0
aF0
aF-0.8304969743922801
aF0.55702313733387099
ababsS'13'
p152
g3
(g4
g5
NtRp153
(lp154
g3
(g8
g5
NtRp155
(lp156
F-14.878070831298828
aF-5.7515058517456055
aF0
abag3
(g11
g5
NtRp157
(lp158
F0
aF0
aF0.99130835622352298
aF0.13155889510564095
ababsS'12'
p159
g3
(g4
g5
NtRp160
(lp161
g3
(g8
g5
NtRp162
(lp163
F-14.667150497436523
aF-5.8542561531066895
aF0
abag3
(g11
g5
NtRp164
(lp165
F0
aF0
aF0.99063038750857957
aF0.13657025790633004
ababsS'11'
p166
g3
(g4
g5
NtRp167
(lp168
g3
(g8
g5
NtRp169
(lp170
F-16.079492568969727
aF-5.2713804244995117
aF0
abag3
(g11
g5
NtRp171
(lp172
F0
aF0
aF-0.14284201292300469
aF0.98974550231062131
ababsS'10'
p173
g3
(g4
g5
NtRp174
(lp175
g3
(g8
g5
NtRp176
(lp177
F-17.001899719238281
aF-5.0524139404296875
aF0
abag3
(g11
g5
NtRp178
(lp179
F0
aF0
aF-0.16818095540538483
aF0.98575613933616058
ababsS'39'
p180
g3
(g4
g5
NtRp181
(lp182
g3
(g8
g5
NtRp183
(lp184
F-15.350476264953613
aF-2.2172937393188477
aF0
abag3
(g11
g5
NtRp185
(lp186
F0
aF0
aF-0.17765661659503582
aF0.98409253964248933
ababsS'38'
p187
g3
(g4
g5
NtRp188
(lp189
g3
(g8
g5
NtRp190
(lp191
F-16.26429557800293
aF-2.4477691650390625
aF0
abag3
(g11
g5
NtRp192
(lp193
F0
aF0
aF-0.19989940134363091
aF0.97981642634855737
ababsS'15'
p194
g3
(g4
g5
NtRp195
(lp196
g3
(g8
g5
NtRp197
(lp198
F-14.815069198608398
aF-6.2438712120056152
aF0
abag3
(g11
g5
NtRp199
(lp200
F0
aF0
aF0.98011470344042195
aF0.19843177190131053
ababsS'14'
p201
g3
(g4
g5
NtRp202
(lp203
g3
(g8
g5
NtRp204
(lp205
F-15.429643630981445
aF-5.4601192474365234
aF0
abag3
(g11
g5
NtRp206
(lp207
F0
aF0
aF0.99011900875861303
aF0.1402296277355877
ababsS'17'
p208
g3
(g4
g5
NtRp209
(lp210
g3
(g8
g5
NtRp211
(lp212
F-15.522684097290039
aF-5.7120428085327148
aF0
abag3
(g11
g5
NtRp213
(lp214
F0
aF0
aF0.97787379699531418
aF0.20919569104063096
ababsS'16'
p215
g3
(g4
g5
NtRp216
(lp217
g3
(g8
g5
NtRp218
(lp219
F-16.094308853149414
aF-8.0678424835205078
aF0
abag3
(g11
g5
NtRp220
(lp221
F0
aF0
aF0.98080065349139267
aF0.19501302036237758
ababsS'19'
p222
g3
(g4
g5
NtRp223
(lp224
g3
(g8
g5
NtRp225
(lp226
F-18.819900512695312
aF-6.775238037109375
aF0
abag3
(g11
g5
NtRp227
(lp228
F0
aF0
aF0.58046972019361698
aF0.81428183323610015
ababsS'18'
p229
g3
(g4
g5
NtRp230
(lp231
g3
(g8
g5
NtRp232
(lp233
F-18.546638488769531
aF-6.0635066032409668
aF0
abag3
(g11
g5
NtRp234
(lp235
F0
aF0
aF0.78233820924172559
aF0.62285385634228041
ababsS'31'
p236
g3
(g4
g5
NtRp237
(lp238
g3
(g8
g5
NtRp239
(lp240
F-18.111352920532227
aF-0.89429599046707153
aF0
abag3
(g11
g5
NtRp241
(lp242
F0
aF0
aF-0.63834098680015272
aF0.76975371682831595
ababsS'30'
p243
g3
(g4
g5
NtRp244
(lp245
g3
(g8
g5
NtRp246
(lp247
F-18.379571914672852
aF-1.2968692779541016
aF0
abag3
(g11
g5
NtRp248
(lp249
F0
aF0
aF-0.33740357465702808
aF0.94136009465488779
ababsS'37'
p250
g3
(g4
g5
NtRp251
(lp252
g3
(g8
g5
NtRp253
(lp254
F-18.201175689697266
aF-1.9334797859191895
aF0
abag3
(g11
g5
NtRp255
(lp256
F0
aF0
aF0.52431367456050693
aF0.85152520260345721
ababsS'36'
p257
g3
(g4
g5
NtRp258
(lp259
g3
(g8
g5
NtRp260
(lp261
F-18.58949089050293
aF-4.0577168464660645
aF0
abag3
(g11
g5
NtRp262
(lp263
F0
aF0
aF0.79047639349326082
aF0.61249250716224068
ababsS'35'
p264
g3
(g4
g5
NtRp265
(lp266
g3
(g8
g5
NtRp267
(lp268
F-18.181503295898438
aF-4.7565937042236328
aF0
abag3
(g11
g5
NtRp269
(lp270
F0
aF0
aF0.98228261636576053
aF0.18740560713499493
ababsS'34'
p271
g3
(g4
g5
NtRp272
(lp273
g3
(g8
g5
NtRp274
(lp275
F-17.419137954711914
aF-4.7511754035949707
aF0
abag3
(g11
g5
NtRp276
(lp277
F0
aF0
aF0.97468796649799583
aF0.22356960429361097
ababsS'33'
p278
g3
(g4
g5
NtRp279
(lp280
g3
(g8
g5
NtRp281
(lp282
F-16.71917724609375
aF-5.1459641456604004
aF0
abag3
(g11
g5
NtRp283
(lp284
F0
aF0
aF0.9732276607768312
aF0.22984325158432917
ababsS'32'
p285
g3
(g4
g5
NtRp286
(lp287
g3
(g8
g5
NtRp288
(lp289
F-15.940874099731445
aF-5.5046906471252441
aF0
abag3
(g11
g5
NtRp290
(lp291
F0
aF0
aF0.96936523917699147
aF0.24562376325456406
ababs.