(dp1
S'1'
ccopy_reg
_reconstructor
p2
(cgeometry_msgs.msg._Pose
Pose
p3
c__builtin__
object
p4
NtRp5
(lp6
g2
(cgeometry_msgs.msg._Point
Point
p7
g4
NtRp8
(lp9
F-18.522384643554688
aF-3.8457465171813965
aF0
abag2
(cgeometry_msgs.msg._Quaternion
Quaternion
p10
g4
NtRp11
(lp12
F0
aF0
aF0.25346682594264669
aF0.96734407950147705
ababsS'3'
g2
(g3
g4
NtRp13
(lp14
g2
(g7
g4
NtRp15
(lp16
F-17.479862213134766
aF0.14038373529911041
aF0
abag2
(g10
g4
NtRp17
(lp18
F0
aF0
aF0.55859863014385058
aF0.82943810522631145
ababsS'2'
g2
(g3
g4
NtRp19
(lp20
g2
(g7
g4
NtRp21
(lp22
F-17.168233871459961
aF-7.4960494041442871
aF0
abag2
(g10
g4
NtRp23
(lp24
F0
aF0
aF0.96663052286716922
aF-0.2561746128357435
ababsS'5'
g2
(g3
g4
NtRp25
(lp26
g2
(g7
g4
NtRp27
(lp28
F-18.102943420410156
aF-1.4173351526260376
aF0
abag2
(g10
g4
NtRp29
(lp30
F0
aF0
aF-0.82891002999539376
aF0.55938194659198237
ababsS'4'
g2
(g3
g4
NtRp31
(lp32
g2
(g7
g4
NtRp33
(lp34
F-15.061433792114258
aF-5.8734955787658691
aF0
abag2
(g10
g4
NtRp35
(lp36
F0
aF0
aF-0.4647616349929628
aF0.88543583767468326
ababsS'6'
g2
(g3
g4
NtRp37
(lp38
g2
(g7
g4
NtRp39
(lp40
F-16.408466339111328
aF-5.2527470588684082
aF0
abag2
(g10
g4
NtRp41
(lp42
F0
aF0
aF-0.56992079503987336
aF0.82169963330959239
ababs.